; Function Attrs: nounwind uwtable
define void @Gia_ManCollectSupp_rec(ptr noundef readonly captures(none) %0, i32 noundef %1, ptr noundef captures(none) %2) local_unnamed_addr #0 {
  %.not32 = icmp eq i32 %1, 0
  br i1 %.not32, label %.loopexit, label %.lr.ph

.lr.ph:                                           ; preds = %3
  %4 = getelementptr i8, ptr %0, i64 176
  %5 = getelementptr i8, ptr %0, i64 616
  %6 = getelementptr i8, ptr %0, i64 32
  br label %7

7:                                                ; preds = %.lr.ph, %tailrecurse
  %.tr2933 = phi i32 [ %1, %.lr.ph ], [ %52, %tailrecurse ]
  %.val21 = load i32, ptr %4, align 8, !tbaa !96
  %.val22 = load ptr, ptr %5, align 8, !tbaa !97
  %8 = sext i32 %.tr2933 to i64
  %9 = getelementptr inbounds i32, ptr %.val22, i64 %8
  %10 = load i32, ptr %9, align 4, !tbaa !12
  %.not28 = icmp eq i32 %10, %.val21
  br i1 %.not28, label %.loopexit, label %11

11:                                               ; preds = %7
  store i32 %.val21, ptr %9, align 4, !tbaa !12
  %.val = load ptr, ptr %6, align 8, !tbaa !46
  %12 = getelementptr inbounds %struct.Gia_Obj_t_, ptr %.val, i64 %8
  %.val25 = load i64, ptr %12, align 4
  %13 = and i64 %.val25, 2684354559
  %narrow.i.not = icmp eq i64 %13, 2684354559
  br i1 %narrow.i.not, label %14, label %tailrecurse

14:                                               ; preds = %11
  %15 = getelementptr inbounds nuw i8, ptr %2, i64 4
  %16 = load i32, ptr %15, align 4, !tbaa !13
  %17 = load i32, ptr %2, align 8, !tbaa !16
  %18 = icmp eq i32 %16, %17
  br i1 %18, label %19, label %.Vec_IntGrow.exit10_crit_edge.i

.Vec_IntGrow.exit10_crit_edge.i:                  ; preds = %14
  %.phi.trans.insert.i = getelementptr inbounds nuw i8, ptr %2, i64 8
  %.pre.i = load ptr, ptr %.phi.trans.insert.i, align 8, !tbaa !17
  br label %Vec_IntPush.exit

19:                                               ; preds = %14
  %20 = icmp slt i32 %16, 16
  br i1 %20, label %21, label %29

21:                                               ; preds = %19
  %22 = getelementptr inbounds nuw i8, ptr %2, i64 8
  %23 = load ptr, ptr %22, align 8, !tbaa !17
  %.not9.i.i = icmp eq ptr %23, null
  br i1 %.not9.i.i, label %26, label %24

24:                                               ; preds = %21
  %25 = tail call dereferenceable_or_null(64) ptr @realloc(ptr noundef nonnull %23, i64 noundef 64) #28
  br label %Vec_IntGrow.exit.i

26:                                               ; preds = %21
  %27 = tail call noalias dereferenceable_or_null(64) ptr @malloc(i64 noundef 64) #25
  br label %Vec_IntGrow.exit.i

Vec_IntGrow.exit.i:                               ; preds = %26, %24
  %28 = phi ptr [ %25, %24 ], [ %27, %26 ]
  store ptr %28, ptr %22, align 8, !tbaa !17
  store i32 16, ptr %2, align 8, !tbaa !16
  br label %Vec_IntPush.exit

29:                                               ; preds = %19
  %30 = shl nuw nsw i32 %16, 1
  %31 = getelementptr inbounds nuw i8, ptr %2, i64 8
  %32 = load ptr, ptr %31, align 8, !tbaa !17
  %.not9.i9.i = icmp eq ptr %32, null
  %33 = zext nneg i32 %30 to i64
  %34 = shl nuw nsw i64 %33, 2
  br i1 %.not9.i9.i, label %37, label %35

35:                                               ; preds = %29
  %36 = tail call ptr @realloc(ptr noundef nonnull %32, i64 noundef %34) #28
  br label %39

37:                                               ; preds = %29
  %38 = tail call noalias ptr @malloc(i64 noundef %34) #25
  br label %39

39:                                               ; preds = %37, %35
  %40 = phi ptr [ %36, %35 ], [ %38, %37 ]
  store ptr %40, ptr %31, align 8, !tbaa !17
  store i32 %30, ptr %2, align 8, !tbaa !16
  br label %Vec_IntPush.exit

Vec_IntPush.exit:                                 ; preds = %.Vec_IntGrow.exit10_crit_edge.i, %Vec_IntGrow.exit.i, %39
  %41 = phi ptr [ %.pre.i, %.Vec_IntGrow.exit10_crit_edge.i ], [ %40, %39 ], [ %28, %Vec_IntGrow.exit.i ]
  %42 = load i32, ptr %15, align 4, !tbaa !13
  %43 = add nsw i32 %42, 1
  store i32 %43, ptr %15, align 4, !tbaa !13
  %44 = sext i32 %42 to i64
  %45 = getelementptr inbounds i32, ptr %41, i64 %44
  store i32 %.tr2933, ptr %45, align 4, !tbaa !12
  br label %.loopexit

tailrecurse:                                      ; preds = %11
  %46 = trunc i64 %.val25 to i32
  %47 = and i32 %46, 536870911
  %48 = sub nsw i32 %.tr2933, %47
  tail call void @Gia_ManCollectSupp_rec(ptr noundef nonnull %0, i32 noundef %48, ptr noundef %2)
  %.val27 = load i64, ptr %12, align 4
  %49 = lshr i64 %.val27, 32
  %50 = trunc nuw i64 %49 to i32
  %51 = and i32 %50, 536870911
  %52 = sub nsw i32 %.tr2933, %51
  %.not = icmp eq i32 %52, 0
  br i1 %.not, label %.loopexit, label %7

.loopexit:                                        ; preds = %7, %tailrecurse, %3, %Vec_IntPush.exit
  ret void
}